Certificate:
    Data:
        Version: 3 (0x2)
        Serial Number:
            1a:6a:c5:25:13:ac:54:d6:6b:76:5a:3c:45:03:0c:3c:c5:0a:92:11
        Signature Algorithm: sha256WithRSAEncryption
        Issuer: CN = QUIC Server Root CA
        Validity
            Not Before: Feb 26 06:26:41 2024 GMT
            Not After : Jan 23 06:26:41 4762 GMT
        Subject: CN = QUIC Server Root CA
        Subject Public Key Info:
            Public Key Algorithm: rsaEncryption
                RSA Public-Key: (2048 bit)
                Modulus:
                    00:c4:42:39:f1:0e:61:b2:28:f5:fd:34:1f:54:9d:
                    d1:93:57:31:a5:a3:e0:cf:64:bf:99:95:5e:88:35:
                    47:61:ce:8e:6e:c1:22:1f:d9:b8:bd:6c:c2:f0:68:
                    69:5c:ea:06:16:f8:51:1d:02:bd:e8:e3:27:68:54:
                    ba:1e:7f:11:12:e2:cd:2b:11:8d:fd:17:b4:8d:7b:
                    35:e3:3b:24:2e:44:52:a0:14:8d:11:66:b2:af:09:
                    54:be:59:db:d0:ef:fd:b1:09:7f:54:bc:f2:e2:0b:
                    27:07:c7:01:bd:80:ca:06:17:de:39:04:89:3f:c7:
                    71:18:5e:62:2f:75:36:6d:92:76:6f:0f:d3:21:84:
                    7e:27:77:d3:f4:44:99:0b:f8:9c:4e:9d:b7:02:3d:
                    a7:fa:79:a0:45:35:37:3f:64:c7:04:5b:3e:db:0f:
                    45:04:72:06:21:6c:87:29:e4:21:fb:d9:85:56:24:
                    ba:7e:8f:1b:be:ca:4e:9c:fd:4b:bf:77:e0:a6:f8:
                    db:8c:fc:02:eb:1b:21:4a:24:bf:c1:3f:92:c4:00:
                    58:74:0f:2f:3c:09:17:94:12:ef:d5:dc:cd:fc:6a:
                    02:be:98:e4:58:ca:ba:47:e3:2b:fa:04:63:7a:47:
                    bf:59:ba:16:23:68:98:ba:d9:5c:3f:bd:7f:6d:58:
                    2e:f5
                Exponent: 65537 (0x10001)
        X509v3 extensions:
            X509v3 Basic Constraints: critical
                CA:TRUE
            X509v3 Subject Key Identifier: 
                DA:D1:D4:B8:15:04:4F:3C:AF:C7:17:00:9B:1E:D4:30:56:94:15:6A
            X509v3 Key Usage: critical
                Certificate Sign, CRL Sign
    Signature Algorithm: sha256WithRSAEncryption
         6d:f1:de:23:47:8b:f6:ff:78:1e:a0:84:17:30:6e:a4:c0:e4:
         da:7d:c7:d3:2c:79:80:59:2e:06:30:3e:d9:97:04:7e:94:95:
         93:26:87:d2:be:e9:a4:b6:18:f2:4d:c1:56:1b:37:47:1e:71:
         4b:57:c1:60:8a:29:26:18:f6:e8:8d:3c:84:26:38:3a:db:3f:
         13:1e:3b:73:c3:a1:cb:9c:15:5e:e6:c4:8d:ef:00:86:47:ae:
         0e:2e:a4:86:ce:eb:49:dc:cf:ed:7d:a5:3f:8f:fd:47:fb:20:
         51:f6:0c:d0:e0:25:f7:6a:88:f4:4a:8c:32:9f:9a:20:45:58:
         c3:6d:5e:5f:12:56:3e:fe:ab:31:62:ff:4a:8d:c3:46:47:9a:
         59:dc:f4:68:da:2f:f9:20:61:55:49:31:62:40:37:00:8f:62:
         b0:bb:67:a0:d4:d0:5e:58:8a:8b:a3:9d:8e:65:26:b7:cb:33:
         22:6f:e6:a5:c1:7d:ba:4f:0e:8b:13:77:97:21:d8:dd:ae:d1:
         dd:35:c7:3c:89:7d:35:0b:e5:32:d5:05:31:f3:d1:36:46:9b:
         f0:e2:b5:d1:6f:be:bd:95:c0:91:09:74:18:4a:f7:24:4e:77:
         1d:86:ed:e1:ae:fe:30:64:23:0e:4a:f5:52:44:46:01:d6:e8:
         cc:69:5f:db
-----BEGIN CERTIFICATE-----
MIIDDjCCAfagAwIBAgIUGmrFJROsVNZrdlo8RQMMPMUKkhEwDQYJKoZIhvcNAQEL
BQAwHjEcMBoGA1UEAwwTUVVJQyBTZXJ2ZXIgUm9vdCBDQTAgFw0yNDAyMjYwNjI2
NDFaGA80NzYyMDEyMzA2MjY0MVowHjEcMBoGA1UEAwwTUVVJQyBTZXJ2ZXIgUm9v
dCBDQTCCASIwDQYJKoZIhvcNAQEBBQADggEPADCCAQoCggEBAMRCOfEOYbIo9f00
H1Sd0ZNXMaWj4M9kv5mVXog1R2HOjm7BIh/ZuL1swvBoaVzqBhb4UR0CvejjJ2hU
uh5/ERLizSsRjf0XtI17NeM7JC5EUqAUjRFmsq8JVL5Z29Dv/bEJf1S88uILJwfH
Ab2AygYX3jkEiT/HcRheYi91Nm2Sdm8P0yGEfid30/REmQv4nE6dtwI9p/p5oEU1
Nz9kxwRbPtsPRQRyBiFshynkIfvZhVYkun6PG77KTpz9S7934Kb424z8AusbIUok
v8E/ksQAWHQPLzwJF5QS79XczfxqAr6Y5FjKukfjK/oEY3pHv1m6FiNomLrZXD+9
f21YLvUCAwEAAaNCMEAwDwYDVR0TAQH/BAUwAwEB/zAdBgNVHQ4EFgQU2tHUuBUE
TzyvxxcAmx7UMFaUFWowDgYDVR0PAQH/BAQDAgEGMA0GCSqGSIb3DQEBCwUAA4IB
AQBt8d4jR4v2/3geoIQXMG6kwOTafcfTLHmAWS4GMD7ZlwR+lJWTJofSvumkthjy
TcFWGzdHHnFLV8FgiikmGPbojTyEJjg62z8THjtzw6HLnBVe5sSN7wCGR64OLqSG
zutJ3M/tfaU/j/1H+yBR9gzQ4CX3aoj0Sowyn5ogRVjDbV5fElY+/qsxYv9KjcNG
R5pZ3PRo2i/5IGFVSTFiQDcAj2Kwu2eg1NBeWIqLo52OZSa3yzMib+alwX26Tw6L
E3eXIdjdrtHdNcc8iX01C+Uy1QUx89E2Rpvw4rXRb769lcCRCXQYSvckTncdhu3h
rv4wZCMOSvVSREYB1ujMaV/b
-----END CERTIFICATE-----
