Certificate:
    Data:
        Version: 3 (0x2)
        Serial Number: 1 (0x1)
        Signature Algorithm: sha256WithRSAEncryption
        Issuer: CN=QUIC Server Root CA
        Validity
            Not Before: Feb 26 06:26:41 2024 GMT
            Not After : Jan 23 06:26:41 4762 GMT
        Subject: C=US, ST=California, L=Mountain View, O=QUIC Server, CN=127.0.0.1
        Subject Public Key Info:
            Public Key Algorithm: rsaEncryption
                RSA Public-Key: (2048 bit)
                Modulus:
                    00:98:49:24:2b:c3:03:56:ce:59:36:b1:9c:2b:18:
                    33:7a:0d:e0:32:55:2b:e2:96:b3:ee:fc:a5:a3:0e:
                    bb:aa:c0:ab:4e:e1:5a:7c:91:b2:8a:62:e5:13:e0:
                    57:48:fe:e1:ba:9b:03:6c:02:16:0e:82:d5:c6:30:
                    73:06:db:81:81:2d:02:7c:a2:d2:47:39:3e:55:4c:
                    f3:02:ba:4d:68:be:ec:66:3a:40:bd:b3:62:c4:2f:
                    8f:1c:7d:ea:7c:5c:d1:b0:1e:21:73:57:58:ae:e5:
                    a7:10:34:f0:81:c4:f5:ce:da:b3:92:76:f1:f6:1a:
                    f5:b2:d2:ab:68:05:0c:ca:fb:a6:c2:f2:d1:a3:6c:
                    91:9f:fb:05:b1:b8:ab:f8:cc:95:a4:cf:4b:b1:63:
                    4c:70:b2:02:5a:4c:06:0b:0a:cd:27:36:41:c4:17:
                    c3:f2:90:07:1d:b2:fa:0a:81:9e:a0:fa:d0:3c:29:
                    de:a2:b2:73:6d:a4:ba:89:ba:78:2e:c3:3d:fd:a4:
                    6b:66:5a:e5:93:27:ba:0a:70:6e:99:a9:bd:c5:70:
                    86:53:bd:72:06:d6:eb:23:c1:01:4b:36:26:a4:46:
                    63:8f:79:98:78:20:d0:f4:54:55:b9:22:94:7b:b4:
                    9f:9d:81:f2:d3:88:cd:66:3a:db:f3:04:48:ee:65:
                    78:7f
                Exponent: 65537 (0x10001)
        X509v3 extensions:
            X509v3 Basic Constraints: critical
                CA:FALSE
            X509v3 Subject Key Identifier: 
                4B:21:32:7A:30:CB:A1:85:BC:50:E9:70:71:68:AB:B8:3E:67:1B:0A
            X509v3 Authority Key Identifier: 
                keyid:DA:D1:D4:B8:15:04:4F:3C:AF:C7:17:00:9B:1E:D4:30:56:94:15:6A

            X509v3 Extended Key Usage: 
                TLS Web Server Authentication, TLS Web Client Authentication
            X509v3 Subject Alternative Name: 
                DNS:www.example.org, DNS:mail.example.org, DNS:mail.example.com, IP Address:127.0.0.1
    Signature Algorithm: sha256WithRSAEncryption
         a8:23:3e:02:2a:23:eb:d1:3b:75:0f:94:e4:81:2a:00:47:90:
         fc:49:1b:1a:d4:2e:a7:62:18:28:30:b9:fb:c7:42:f7:eb:cc:
         7e:77:b8:6a:28:29:16:86:ac:f8:c6:d9:fc:f8:26:14:c1:2f:
         c9:f0:e1:c2:d7:2b:ce:2b:61:5d:cc:db:33:36:ed:f0:19:5c:
         50:7f:e5:d1:e3:a9:40:e7:ae:b4:2c:db:c5:13:12:ca:33:f6:
         9e:06:38:8e:e2:fc:a2:ff:f8:2d:3f:54:3f:3d:98:bb:4f:ec:
         1a:59:a3:e6:15:2c:10:86:3c:09:82:0f:da:d7:66:92:88:3c:
         09:8d:e0:1a:df:3a:e2:99:f9:00:ba:e3:ae:61:96:31:12:05:
         29:5a:fb:48:57:40:76:9f:ae:2a:ce:4b:34:9d:ee:56:37:61:
         df:2d:06:b9:41:bc:1a:74:8c:c8:8e:0f:ce:05:a3:a9:42:d2:
         e5:25:6c:0f:de:59:e8:04:97:c7:1f:ca:1a:75:9a:d2:4e:b0:
         31:28:4d:ad:a3:b4:33:05:e7:1c:3c:12:d4:5a:1c:01:2f:73:
         3e:27:f8:3c:eb:58:fd:76:42:10:b2:83:bc:f9:92:0f:93:e2:
         18:77:59:47:cd:23:86:d7:c3:f2:db:14:0b:40:70:a6:a6:8e:
         8f:18:51:79
-----BEGIN CERTIFICATE-----
MIIDtjCCAp6gAwIBAgIBATANBgkqhkiG9w0BAQsFADAeMRwwGgYDVQQDDBNRVUlD
IFNlcnZlciBSb290IENBMCAXDTI0MDIyNjA2MjY0MVoYDzQ3NjIwMTIzMDYyNjQx
WjBkMQswCQYDVQQGEwJVUzETMBEGA1UECAwKQ2FsaWZvcm5pYTEWMBQGA1UEBwwN
TW91bnRhaW4gVmlldzEUMBIGA1UECgwLUVVJQyBTZXJ2ZXIxEjAQBgNVBAMMCTEy
Ny4wLjAuMTCCASIwDQYJKoZIhvcNAQEBBQADggEPADCCAQoCggEBAJhJJCvDA1bO
WTaxnCsYM3oN4DJVK+KWs+78paMOu6rAq07hWnyRsopi5RPgV0j+4bqbA2wCFg6C
1cYwcwbbgYEtAnyi0kc5PlVM8wK6TWi+7GY6QL2zYsQvjxx96nxc0bAeIXNXWK7l
pxA08IHE9c7as5J28fYa9bLSq2gFDMr7psLy0aNskZ/7BbG4q/jMlaTPS7FjTHCy
AlpMBgsKzSc2QcQXw/KQBx2y+gqBnqD60Dwp3qKyc22kuom6eC7DPf2ka2Za5ZMn
ugpwbpmpvcVwhlO9cgbW6yPBAUs2JqRGY495mHgg0PRUVbkilHu0n52B8tOIzWY6
2/MESO5leH8CAwEAAaOBtjCBszAMBgNVHRMBAf8EAjAAMB0GA1UdDgQWBBRLITJ6
MMuhhbxQ6XBxaKu4PmcbCjAfBgNVHSMEGDAWgBTa0dS4FQRPPK/HFwCbHtQwVpQV
ajAdBgNVHSUEFjAUBggrBgEFBQcDAQYIKwYBBQUHAwIwRAYDVR0RBD0wO4IPd3d3
LmV4YW1wbGUub3JnghBtYWlsLmV4YW1wbGUub3JnghBtYWlsLmV4YW1wbGUuY29t
hwR/AAABMA0GCSqGSIb3DQEBCwUAA4IBAQCoIz4CKiPr0Tt1D5TkgSoAR5D8SRsa
1C6nYhgoMLn7x0L368x+d7hqKCkWhqz4xtn8+CYUwS/J8OHC1yvOK2FdzNszNu3w
GVxQf+XR46lA5660LNvFExLKM/aeBjiO4vyi//gtP1Q/PZi7T+waWaPmFSwQhjwJ
gg/a12aSiDwJjeAa3zrimfkAuuOuYZYxEgUpWvtIV0B2n64qzks0ne5WN2HfLQa5
QbwadIzIjg/OBaOpQtLlJWwP3lnoBJfHH8oadZrSTrAxKE2to7QzBeccPBLUWhwB
L3M+J/g861j9dkIQsoO8+ZIPk+IYd1lHzSOG18Py2xQLQHCmpo6PGFF5
-----END CERTIFICATE-----
